; Function Attrs: mustprogress nofree norecurse nosync nounwind willreturn memory(argmem: readwrite) uwtable
define hidden range(i32 0, 42) i32 @PyExpat_XML_UseForeignDTD(ptr noundef %0, i8 noundef zeroext %1) local_unnamed_addr #4 {
  %3 = icmp eq ptr %0, null
  br i1 %3, label %9, label %4

4:                                                ; preds = %2
  %5 = getelementptr inbounds nuw i8, ptr %0, i64 920
  %6 = load i32, ptr %5, align 8, !tbaa !113
  switch i32 %6, label %7 [
    i32 1, label %9
    i32 3, label %9
  ]

7:                                                ; preds = %4
  %8 = getelementptr inbounds nuw i8, ptr %0, i64 929
  store i8 %1, ptr %8, align 1, !tbaa !115
  br label %9

9:                                                ; preds = %4, %4, %2, %7
  %.0 = phi i32 [ 0, %7 ], [ 41, %2 ], [ 26, %4 ], [ 26, %4 ]
  ret i32 %.0
}